target datalayout = "e-m:e-p270:32:32-p271:32:32-p272:64:64-i64:64-i128:128-f80:128-n8:16:32:64-S128"
target triple = "x86_64-pc-linux-gnu"

; Function Attrs: nounwind uwtable
define hidden zeroext i1 @lexbor_str_data_ncasecmp_end(ptr noundef %0, ptr noundef %1, i64 noundef %2) #0 {
  %4 = alloca i1, align 1
  %5 = alloca ptr, align 8
  %6 = alloca ptr, align 8
  %7 = alloca i64, align 8
  store ptr %0, ptr %5, align 8
  store ptr %1, ptr %6, align 8
  store i64 %2, ptr %7, align 8
  br label %8

8:                                                ; preds = %32, %3
  %9 = load i64, ptr %7, align 8
  %10 = icmp ne i64 %9, 0
  br i1 %10, label %11, label %33

11:                                               ; preds = %8
  %12 = load i64, ptr %7, align 8
  %13 = add i64 %12, -1
  store i64 %13, ptr %7, align 8
  %14 = load ptr, ptr %5, align 8
  %15 = load i64, ptr %7, align 8
  %16 = getelementptr inbounds i8, ptr %14, i64 %15
  %17 = load i8, ptr %16, align 1
  %18 = zext i8 %17 to i64
  %19 = getelementptr inbounds [256 x i8], ptr @lexbor_str_res_map_lowercase, i64 0, i64 %18
  %20 = load i8, ptr %19, align 1
  %21 = zext i8 %20 to i32
  %22 = load ptr, ptr %6, align 8
  %23 = load i64, ptr %7, align 8
  %24 = getelementptr inbounds i8, ptr %22, i64 %23
  %25 = load i8, ptr %24, align 1
  %26 = zext i8 %25 to i64
  %27 = getelementptr inbounds [256 x i8], ptr @lexbor_str_res_map_lowercase, i64 0, i64 %26
  %28 = load i8, ptr %27, align 1
  %29 = zext i8 %28 to i32
  %30 = icmp ne i32 %21, %29
  br i1 %30, label %31, label %32

31:                                               ; preds = %11
  store i1 false, ptr %4, align 1
  br label %34

32:                                               ; preds = %11
  br label %8

33:                                               ; preds = %8
  store i1 true, ptr %4, align 1
  br label %34

34:                                               ; preds = %33, %31
  %35 = load i1, ptr %4, align 1
  ret i1 %35
}