; Function Attrs: nofree norecurse nosync nounwind memory(argmem: read) uwtable
define hidden noundef zeroext i1 @lexbor_str_data_ncasecmp_end(ptr nocapture noundef readonly %0, ptr nocapture noundef readonly %1, i64 noundef %2) local_unnamed_addr #8 {
  br label %4

4:                                                ; preds = %5, %3
  %.0 = phi i64 [ %2, %3 ], [ %6, %5 ]
  %.not = icmp eq i64 %.0, 0
  br i1 %.not, label %17, label %5

5:                                                ; preds = %4
  %6 = add i64 %.0, -1
  %7 = getelementptr inbounds i8, ptr %0, i64 %6
  %8 = load i8, ptr %7, align 1
  %9 = zext i8 %8 to i64
  %10 = getelementptr inbounds [256 x i8], ptr @lexbor_str_res_map_lowercase, i64 0, i64 %9
  %11 = load i8, ptr %10, align 1
  %12 = getelementptr inbounds i8, ptr %1, i64 %6
  %13 = load i8, ptr %12, align 1
  %14 = zext i8 %13 to i64
  %15 = getelementptr inbounds [256 x i8], ptr @lexbor_str_res_map_lowercase, i64 0, i64 %14
  %16 = load i8, ptr %15, align 1
  %.not7 = icmp eq i8 %11, %16
  br i1 %.not7, label %4, label %17

17:                                               ; preds = %4, %5
  ret i1 %.not
}